; Function Attrs: mustprogress nounwind uwtable
define dso_local void @_ZN4node15BlobBindingData11DeserializeEN2v85LocalINS1_7ContextEEENS2_INS1_6ObjectEEEiPNS_21InternalFieldInfoBaseE(ptr nonnull %context.coerce, ptr %holder.coerce, i32 noundef %index, ptr nocapture noundef readnone %info) local_unnamed_addr #3 align 2 {
if.end.i.i:
  %scope = alloca %"class.v8::HandleScope", align 8
  %call6 = tail call noundef ptr @_ZN2v87Context10GetIsolateEv(ptr noundef nonnull align 1 dereferenceable(1) %context.coerce) #22
  call void @_ZN2v811HandleScopeC1EPNS_7IsolateE(ptr noundef nonnull align 8 dereferenceable(24) %scope, ptr noundef %call6) #22
  %call5.i.i = call noundef i32 @_ZN2v87Context29GetNumberOfEmbedderDataFieldsEv(ptr noundef nonnull align 1 dereferenceable(1) %context.coerce) #22
  %cmp.i.i = icmp ugt i32 %call5.i.i, 39
  call void @llvm.assume(i1 %cmp.i.i)
  %0 = load i64, ptr %context.coerce, align 8
  %sub.i37.i.i = add i64 %0, 47
  %1 = inttoptr i64 %sub.i37.i.i to ptr
  %2 = load i64, ptr %1, align 8
  %sub.i.i.i = add i64 %2, 327
  %3 = inttoptr i64 %sub.i.i.i to ptr
  %4 = load i64, ptr %3, align 8
  %5 = inttoptr i64 %4 to ptr
  %6 = load ptr, ptr @_ZN4node18ContextEmbedderTag18kNodeContextTagPtrE, align 8
  %cmp12.not.i.i = icmp eq ptr %6, %5
  call void @llvm.assume(i1 %cmp12.not.i.i)
  %sub.i.i = add i64 %2, 319
  %7 = inttoptr i64 %sub.i.i to ptr
  %8 = load i64, ptr %7, align 8
  %9 = inttoptr i64 %8 to ptr
  %call15 = call noundef ptr @_ZN4node5Realm14AddBindingDataINS_15BlobBindingDataEJEEEPT_N2v85LocalINS5_6ObjectEEEDpOT0_(ptr noundef nonnull align 8 dereferenceable(872) %9, ptr %holder.coerce)
  %cmp.not = icmp eq ptr %call15, null
  br i1 %cmp.not, label %do.body18, label %do.end20

do.body18:                                        ; preds = %if.end.i.i
  call void @_ZN4node6AssertERKNS_13AssertionInfoE(ptr noundef nonnull align 8 dereferenceable(24) @_ZZN4node15BlobBindingData11DeserializeEN2v85LocalINS1_7ContextEEENS2_INS1_6ObjectEEEiPNS_21InternalFieldInfoBaseEE4args) #22
  call void @abort() #23
  unreachable

do.end20:                                         ; preds = %if.end.i.i
  call void @_ZN2v811HandleScopeD1Ev(ptr noundef nonnull align 8 dereferenceable(24) %scope) #22
  ret void
}